target datalayout = "e-m:e-p270:32:32-p271:32:32-p272:64:64-i64:64-i128:128-f80:128-n8:16:32:64-S128"
target triple = "x86_64-pc-linux-gnu"

%struct.expert_field = type { i32, i32 }

@hf_timezone_time = internal global i32 0, align 4
@hf_timezone_offset = internal global i32 0, align 4
@ett_sdp_timezone = internal global i32 0, align 4
@ei_sdp_invalid_line_fields = internal global %struct.expert_field zeroinitializer, align 4
@ei_sdp_invalid_line_space = internal global %struct.expert_field zeroinitializer, align 4

; Function Attrs: inlinehint null_pointer_is_valid sspstrong uwtable
define internal i32 @find_next_optional_token_in_line(ptr noundef %0, ptr noundef %1, ptr noundef %2, ptr noundef %3, i1 noundef zeroext %4) #7 {
  %6 = alloca ptr, align 8
  %7 = alloca ptr, align 8
  %8 = alloca ptr, align 8
  %9 = alloca ptr, align 8
  %10 = alloca i8, align 1
  %11 = alloca i32, align 4
  %12 = alloca i32, align 4
  %13 = alloca i32, align 4
  store ptr %0, ptr %6, align 8
  store ptr %1, ptr %7, align 8
  store ptr %2, ptr %8, align 8
  store ptr %3, ptr %9, align 8
  %14 = zext i1 %4 to i8
  store i8 %14, ptr %10, align 1
  call void @llvm.lifetime.start.p0(i64 4, ptr %11) #15
  store i32 0, ptr %11, align 4
  call void @llvm.lifetime.start.p0(i64 4, ptr %12) #15
  store i32 -1, ptr %12, align 4
  call void @llvm.lifetime.start.p0(i64 4, ptr %13) #15
  %15 = load ptr, ptr %8, align 8
  %16 = load i32, ptr %15, align 4
  store i32 %16, ptr %13, align 4
  %17 = load ptr, ptr %6, align 8
  %18 = load i32, ptr %13, align 4
  %19 = call zeroext i1 @tvb_offset_exists(ptr noundef %17, i32 noundef %18)
  br i1 %19, label %20, label %50

20:                                               ; preds = %5
  br label %21

21:                                               ; preds = %48, %20
  %22 = load i32, ptr %11, align 4
  %23 = icmp eq i32 %22, 0
  br i1 %23, label %24, label %49

24:                                               ; preds = %21
  %25 = load ptr, ptr %6, align 8
  %26 = load i32, ptr %13, align 4
  %27 = call i32 @tvb_find_uint8(ptr noundef %25, i32 noundef %26, i32 noundef -1, i8 noundef zeroext 32)
  store i32 %27, ptr %12, align 4
  %28 = load i32, ptr %12, align 4
  %29 = icmp eq i32 %28, -1
  br i1 %29, label %30, label %34

30:                                               ; preds = %24
  %31 = load ptr, ptr %6, align 8
  %32 = load i32, ptr %13, align 4
  %33 = call i32 @tvb_captured_length_remaining(ptr noundef %31, i32 noundef %32)
  store i32 %33, ptr %11, align 4
  br label %49

34:                                               ; preds = %24
  %35 = load i32, ptr %12, align 4
  %36 = load i32, ptr %13, align 4
  %37 = sub i32 %35, %36
  store i32 %37, ptr %11, align 4
  %38 = load i32, ptr %11, align 4
  %39 = icmp eq i32 %38, 0
  br i1 %39, label %40, label %48

40:                                               ; preds = %34
  %41 = load ptr, ptr %7, align 8
  %42 = load ptr, ptr %6, align 8
  %43 = load i32, ptr %13, align 4
  %44 = sub i32 %43, 1
  %45 = call ptr @proto_tree_add_expert(ptr noundef %41, ptr noundef null, ptr noundef @ei_sdp_invalid_line_space, ptr noundef %42, i32 noundef %44, i32 noundef 2)
  %46 = load i32, ptr %12, align 4
  %47 = add i32 %46, 1
  store i32 %47, ptr %13, align 4
  br label %48

48:                                               ; preds = %40, %34
  br label %21, !llvm.loop !26

49:                                               ; preds = %30, %21
  br label %50

50:                                               ; preds = %49, %5
  %51 = load i8, ptr %10, align 1, !range !9, !noundef !10
  %52 = trunc i8 %51 to i1
  br i1 %52, label %60, label %53

53:                                               ; preds = %50
  %54 = load i32, ptr %11, align 4
  %55 = icmp eq i32 %54, 0
  br i1 %55, label %56, label %60

56:                                               ; preds = %53
  %57 = load ptr, ptr %7, align 8
  %58 = load ptr, ptr %6, align 8
  %59 = call ptr @proto_tree_add_expert(ptr noundef %57, ptr noundef null, ptr noundef @ei_sdp_invalid_line_fields, ptr noundef %58, i32 noundef 0, i32 noundef -1)
  br label %60

60:                                               ; preds = %56, %53, %50
  %61 = load i32, ptr %12, align 4
  %62 = load ptr, ptr %9, align 8
  store i32 %61, ptr %62, align 4
  %63 = load i32, ptr %13, align 4
  %64 = load ptr, ptr %8, align 8
  store i32 %63, ptr %64, align 4
  %65 = load i32, ptr %11, align 4
  call void @llvm.lifetime.end.p0(i64 4, ptr %13) #15
  call void @llvm.lifetime.end.p0(i64 4, ptr %12) #15
  call void @llvm.lifetime.end.p0(i64 4, ptr %11) #15
  ret i32 %65
}

; Function Attrs: null_pointer_is_valid sspstrong uwtable
define internal void @dissect_sdp_timezone(ptr noundef %0, ptr noundef %1) #0 {
  %3 = alloca ptr, align 8
  %4 = alloca ptr, align 8
  %5 = alloca ptr, align 8
  %6 = alloca i32, align 4
  %7 = alloca i32, align 4
  %8 = alloca i32, align 4
  %9 = alloca i8, align 1
  store ptr %0, ptr %3, align 8
  store ptr %1, ptr %4, align 8
  call void @llvm.lifetime.start.p0(i64 8, ptr %5) #15
  call void @llvm.lifetime.start.p0(i64 4, ptr %6) #15
  call void @llvm.lifetime.start.p0(i64 4, ptr %7) #15
  call void @llvm.lifetime.start.p0(i64 4, ptr %8) #15
  call void @llvm.lifetime.start.p0(i64 1, ptr %9) #15
  store i8 0, ptr %9, align 1
  store i32 0, ptr %6, align 4
  %10 = load ptr, ptr %4, align 8
  %11 = load i32, ptr @ett_sdp_timezone, align 4
  %12 = call ptr @proto_item_add_subtree(ptr noundef %10, i32 noundef %11)
  store ptr %12, ptr %5, align 8
  br label %13

13:                                               ; preds = %48, %2
  %14 = load ptr, ptr %3, align 8
  %15 = load ptr, ptr %5, align 8
  %16 = load i8, ptr %9, align 1, !range !9, !noundef !10
  %17 = trunc i8 %16 to i1
  %18 = call i32 @find_next_optional_token_in_line(ptr noundef %14, ptr noundef %15, ptr noundef %6, ptr noundef %7, i1 noundef zeroext %17)
  store i32 %18, ptr %8, align 4
  %19 = load i32, ptr %8, align 4
  %20 = icmp eq i32 %19, 0
  br i1 %20, label %21, label %22

21:                                               ; preds = %13
  br label %51

22:                                               ; preds = %13
  %23 = load ptr, ptr %5, align 8
  %24 = load i32, ptr @hf_timezone_time, align 4
  %25 = load ptr, ptr %3, align 8
  %26 = load i32, ptr %6, align 4
  %27 = load i32, ptr %8, align 4
  %28 = call ptr @proto_tree_add_item(ptr noundef %23, i32 noundef %24, ptr noundef %25, i32 noundef %26, i32 noundef %27, i32 noundef 2)
  %29 = load i32, ptr %7, align 4
  %30 = add i32 %29, 1
  store i32 %30, ptr %6, align 4
  %31 = load ptr, ptr %3, align 8
  %32 = load ptr, ptr %5, align 8
  %33 = load i8, ptr %9, align 1, !range !9, !noundef !10
  %34 = trunc i8 %33 to i1
  %35 = call i32 @find_next_optional_token_in_line(ptr noundef %31, ptr noundef %32, ptr noundef %6, ptr noundef %7, i1 noundef zeroext %34)
  store i32 %35, ptr %8, align 4
  %36 = load i32, ptr %8, align 4
  %37 = icmp eq i32 %36, 0
  br i1 %37, label %38, label %39

38:                                               ; preds = %22
  br label %51

39:                                               ; preds = %22
  %40 = load ptr, ptr %5, align 8
  %41 = load i32, ptr @hf_timezone_offset, align 4
  %42 = load ptr, ptr %3, align 8
  %43 = load i32, ptr %6, align 4
  %44 = load i32, ptr %8, align 4
  %45 = call ptr @proto_tree_add_item(ptr noundef %40, i32 noundef %41, ptr noundef %42, i32 noundef %43, i32 noundef %44, i32 noundef 2)
  %46 = load i32, ptr %7, align 4
  %47 = add i32 %46, 1
  store i32 %47, ptr %6, align 4
  store i8 1, ptr %9, align 1
  br label %48

48:                                               ; preds = %39
  %49 = load i32, ptr %7, align 4
  %50 = icmp ne i32 %49, -1
  br i1 %50, label %13, label %51, !llvm.loop !24

51:                                               ; preds = %48, %38, %21
  call void @llvm.lifetime.end.p0(i64 1, ptr %9) #15
  call void @llvm.lifetime.end.p0(i64 4, ptr %8) #15
  call void @llvm.lifetime.end.p0(i64 4, ptr %7) #15
  call void @llvm.lifetime.end.p0(i64 4, ptr %6) #15
  call void @llvm.lifetime.end.p0(i64 8, ptr %5) #15
  ret void
}