; Function Attrs: null_pointer_is_valid sspstrong uwtable
define internal fastcc void @dissect_sdp_timezone(ptr noundef %0, ptr noundef %1) unnamed_addr #0 {
  %3 = load i32, ptr @ett_sdp_timezone, align 4
  %4 = tail call ptr @proto_item_add_subtree(ptr noundef %1, i32 noundef %3)
  br label %5

5:                                                ; preds = %find_next_optional_token_in_line.exit27.thread47, %2
  %.033 = phi i32 [ 0, %2 ], [ %41, %find_next_optional_token_in_line.exit27.thread47 ]
  %.0 = phi i1 [ false, %2 ], [ true, %find_next_optional_token_in_line.exit27.thread47 ]
  %6 = tail call zeroext i1 @tvb_offset_exists(ptr noundef %0, i32 noundef %.033)
  br i1 %6, label %.preheader.i, label %.thread

.preheader.i:                                     ; preds = %5
  %7 = tail call i32 @tvb_find_uint8(ptr noundef %0, i32 noundef %.033, i32 noundef -1, i8 noundef zeroext 32)
  %8 = icmp eq i32 %7, -1
  br i1 %8, label %.loopexit94, label %.lr.ph.i

.lr.ph.i:                                         ; preds = %.preheader.i, %12
  %9 = phi i32 [ %16, %12 ], [ %7, %.preheader.i ]
  %.146.i = phi i32 [ %15, %12 ], [ %.033, %.preheader.i ]
  %10 = sub i32 %9, %.146.i
  %11 = icmp eq i32 %10, 0
  br i1 %11, label %12, label %find_next_optional_token_in_line.exit.thread37.loopexit

12:                                               ; preds = %.lr.ph.i
  %13 = add i32 %.146.i, -1
  %14 = tail call ptr @proto_tree_add_expert(ptr noundef %4, ptr noundef null, ptr noundef nonnull @ei_sdp_invalid_line_space, ptr noundef %0, i32 noundef %13, i32 noundef 2)
  %15 = add nuw i32 %9, 1
  %16 = tail call i32 @tvb_find_uint8(ptr noundef %0, i32 noundef %15, i32 noundef -1, i8 noundef zeroext 32)
  %17 = icmp eq i32 %16, -1
  br i1 %17, label %.loopexit94, label %.lr.ph.i

.loopexit94:                                      ; preds = %12, %.preheader.i
  %.1.lcssa.i = phi i32 [ %.033, %.preheader.i ], [ %15, %12 ]
  %18 = tail call i32 @tvb_captured_length_remaining(ptr noundef %0, i32 noundef %.1.lcssa.i)
  %19 = icmp ne i32 %18, 0
  %or.cond.not.i = select i1 %.0, i1 true, i1 %19
  br i1 %or.cond.not.i, label %find_next_optional_token_in_line.exit, label %.loopexit.sink.split

.thread:                                          ; preds = %5
  br i1 %.0, label %.loopexit, label %.loopexit.sink.split

find_next_optional_token_in_line.exit:            ; preds = %.loopexit94
  %20 = icmp eq i32 %18, 0
  br i1 %20, label %.loopexit, label %find_next_optional_token_in_line.exit.thread37

find_next_optional_token_in_line.exit.thread37.loopexit: ; preds = %.lr.ph.i
  %21 = add nuw i32 %9, 1
  br label %find_next_optional_token_in_line.exit.thread37

find_next_optional_token_in_line.exit.thread37:   ; preds = %find_next_optional_token_in_line.exit.thread37.loopexit, %find_next_optional_token_in_line.exit
  %.02940.i43 = phi i32 [ %18, %find_next_optional_token_in_line.exit ], [ %10, %find_next_optional_token_in_line.exit.thread37.loopexit ]
  %.02841.i42 = phi i32 [ 0, %find_next_optional_token_in_line.exit ], [ %21, %find_next_optional_token_in_line.exit.thread37.loopexit ]
  %.042.i41 = phi i32 [ %.1.lcssa.i, %find_next_optional_token_in_line.exit ], [ %.146.i, %find_next_optional_token_in_line.exit.thread37.loopexit ]
  %22 = load i32, ptr @hf_timezone_time, align 4
  %23 = tail call ptr @proto_tree_add_item(ptr noundef %4, i32 noundef %22, ptr noundef %0, i32 noundef %.042.i41, i32 noundef %.02940.i43, i32 noundef 2)
  %24 = tail call zeroext i1 @tvb_offset_exists(ptr noundef %0, i32 noundef %.02841.i42)
  br i1 %24, label %.preheader.i22, label %.thread84

.preheader.i22:                                   ; preds = %find_next_optional_token_in_line.exit.thread37
  %25 = tail call i32 @tvb_find_uint8(ptr noundef %0, i32 noundef %.02841.i42, i32 noundef -1, i8 noundef zeroext 32)
  %26 = icmp eq i32 %25, -1
  br i1 %26, label %.loopexit93, label %.lr.ph.i23

.lr.ph.i23:                                       ; preds = %.preheader.i22, %30
  %27 = phi i32 [ %34, %30 ], [ %25, %.preheader.i22 ]
  %.146.i24 = phi i32 [ %33, %30 ], [ %.02841.i42, %.preheader.i22 ]
  %28 = sub i32 %27, %.146.i24
  %29 = icmp eq i32 %28, 0
  br i1 %29, label %30, label %find_next_optional_token_in_line.exit27.thread47

30:                                               ; preds = %.lr.ph.i23
  %31 = add i32 %.146.i24, -1
  %32 = tail call ptr @proto_tree_add_expert(ptr noundef %4, ptr noundef null, ptr noundef nonnull @ei_sdp_invalid_line_space, ptr noundef %0, i32 noundef %31, i32 noundef 2)
  %33 = add nuw i32 %27, 1
  %34 = tail call i32 @tvb_find_uint8(ptr noundef %0, i32 noundef %33, i32 noundef -1, i8 noundef zeroext 32)
  %35 = icmp eq i32 %34, -1
  br i1 %35, label %.loopexit93, label %.lr.ph.i23

.loopexit93:                                      ; preds = %30, %.preheader.i22
  %.1.lcssa.i26 = phi i32 [ %.02841.i42, %.preheader.i22 ], [ %33, %30 ]
  %36 = tail call i32 @tvb_captured_length_remaining(ptr noundef %0, i32 noundef %.1.lcssa.i26)
  %37 = icmp ne i32 %36, 0
  %or.cond.not.i18 = select i1 %.0, i1 true, i1 %37
  br i1 %or.cond.not.i18, label %find_next_optional_token_in_line.exit27, label %.loopexit.sink.split

.thread84:                                        ; preds = %find_next_optional_token_in_line.exit.thread37
  br i1 %.0, label %.loopexit, label %.loopexit.sink.split

find_next_optional_token_in_line.exit27:          ; preds = %.loopexit93
  %38 = icmp eq i32 %36, 0
  br i1 %38, label %.loopexit, label %find_next_optional_token_in_line.exit27.thread47

find_next_optional_token_in_line.exit27.thread47: ; preds = %.lr.ph.i23, %find_next_optional_token_in_line.exit27
  %.02940.i2153 = phi i32 [ %36, %find_next_optional_token_in_line.exit27 ], [ %28, %.lr.ph.i23 ]
  %.02841.i2052 = phi i32 [ -1, %find_next_optional_token_in_line.exit27 ], [ %27, %.lr.ph.i23 ]
  %.042.i1951 = phi i32 [ %.1.lcssa.i26, %find_next_optional_token_in_line.exit27 ], [ %.146.i24, %.lr.ph.i23 ]
  %39 = load i32, ptr @hf_timezone_offset, align 4
  %40 = tail call ptr @proto_tree_add_item(ptr noundef %4, i32 noundef %39, ptr noundef %0, i32 noundef %.042.i1951, i32 noundef %.02940.i2153, i32 noundef 2)
  %41 = add nuw i32 %.02841.i2052, 1
  %.not = icmp eq i32 %.02841.i2052, -1
  br i1 %.not, label %.loopexit, label %5, !llvm.loop !24

.loopexit.sink.split:                             ; preds = %.loopexit93, %.loopexit94, %.thread84, %.thread
  %42 = tail call ptr @proto_tree_add_expert(ptr noundef %4, ptr noundef null, ptr noundef nonnull @ei_sdp_invalid_line_fields, ptr noundef %0, i32 noundef 0, i32 noundef -1)
  br label %.loopexit

.loopexit:                                        ; preds = %find_next_optional_token_in_line.exit27, %find_next_optional_token_in_line.exit, %find_next_optional_token_in_line.exit27.thread47, %.loopexit.sink.split, %.thread84, %.thread
  ret void
}